; Function Attrs: mustprogress uwtable
define noalias nonnull ptr @lean_io_process_get_pid(ptr noundef readnone captures(none) %0) local_unnamed_addr #0 {
  %2 = tail call i32 @getpid() #24
  tail call void @lean_inc_heartbeat()
  %3 = tail call noalias ptr @mi_malloc_small(i64 noundef 24) #24
  %4 = icmp eq ptr %3, null
  br i1 %4, label %5, label %_ZL20lean_io_result_mk_okP11lean_object.exit

5:                                                ; preds = %1
  tail call void @lean_internal_panic_out_of_memory() #25
  unreachable

_ZL20lean_io_result_mk_okP11lean_object.exit:     ; preds = %1
  %6 = zext i32 %2 to i64
  %7 = shl nuw nsw i64 %6, 1
  %8 = or disjoint i64 %7, 1
  %9 = inttoptr i64 %8 to ptr
  %10 = getelementptr inbounds nuw i8, ptr %3, i64 4
  store i32 1, ptr %3, align 4, !tbaa !7
  store i32 131096, ptr %10, align 4
  %11 = getelementptr inbounds nuw i8, ptr %3, i64 8
  store ptr %9, ptr %11, align 8, !tbaa !9
  %12 = getelementptr inbounds nuw i8, ptr %3, i64 16
  store ptr inttoptr (i64 1 to ptr), ptr %12, align 8, !tbaa !9
  ret ptr %3
}